; Function Attrs: nofree norecurse nosync nounwind memory(argmem: readwrite) uwtable
define internal void @vc1_inv_trans_4x8_dc_c(ptr noundef captures(none) %0, i64 noundef %1, ptr noundef readonly captures(none) %2) #1 {
.lver.check:
  %3 = load i16, ptr %2, align 2, !tbaa !34
  %4 = sext i16 %3 to i32
  %5 = mul nsw i32 %4, 17
  %6 = add nsw i32 %5, 4
  %7 = ashr i32 %6, 3
  %8 = mul nsw i32 %7, 12
  %9 = add nsw i32 %8, 64
  %10 = ashr i32 %9, 7
  %ident.check.not = icmp eq i64 %1, 1
  br i1 %ident.check.not, label %.ph, label %.ph.lver.orig

.ph.lver.orig:                                    ; preds = %.lver.check, %.ph.lver.orig
  %.029.lver.orig = phi i32 [ %35, %.ph.lver.orig ], [ 0, %.lver.check ]
  %.01828.lver.orig = phi ptr [ %34, %.ph.lver.orig ], [ %0, %.lver.check ]
  %11 = load i8, ptr %.01828.lver.orig, align 1, !tbaa !40
  %12 = zext i8 %11 to i32
  %13 = add nsw i32 %10, %12
  %.not.i.lver.orig = icmp ult i32 %13, 256
  %isnotneg.i.lver.orig = icmp sgt i32 %13, -1
  %14 = sext i1 %isnotneg.i.lver.orig to i8
  %15 = trunc nuw i32 %13 to i8
  %.0.i.lver.orig = select i1 %.not.i.lver.orig, i8 %15, i8 %14
  store i8 %.0.i.lver.orig, ptr %.01828.lver.orig, align 1, !tbaa !40
  %16 = getelementptr inbounds nuw i8, ptr %.01828.lver.orig, i64 1
  %17 = load i8, ptr %16, align 1, !tbaa !40
  %18 = zext i8 %17 to i32
  %19 = add nsw i32 %10, %18
  %.not.i19.lver.orig = icmp ult i32 %19, 256
  %isnotneg.i20.lver.orig = icmp sgt i32 %19, -1
  %20 = sext i1 %isnotneg.i20.lver.orig to i8
  %21 = trunc nuw i32 %19 to i8
  %.0.i21.lver.orig = select i1 %.not.i19.lver.orig, i8 %21, i8 %20
  store i8 %.0.i21.lver.orig, ptr %16, align 1, !tbaa !40
  %22 = getelementptr inbounds nuw i8, ptr %.01828.lver.orig, i64 2
  %23 = load i8, ptr %22, align 1, !tbaa !40
  %24 = zext i8 %23 to i32
  %25 = add nsw i32 %10, %24
  %.not.i22.lver.orig = icmp ult i32 %25, 256
  %isnotneg.i23.lver.orig = icmp sgt i32 %25, -1
  %26 = sext i1 %isnotneg.i23.lver.orig to i8
  %27 = trunc nuw i32 %25 to i8
  %.0.i24.lver.orig = select i1 %.not.i22.lver.orig, i8 %27, i8 %26
  store i8 %.0.i24.lver.orig, ptr %22, align 1, !tbaa !40
  %28 = getelementptr inbounds nuw i8, ptr %.01828.lver.orig, i64 3
  %29 = load i8, ptr %28, align 1, !tbaa !40
  %30 = zext i8 %29 to i32
  %31 = add nsw i32 %10, %30
  %.not.i25.lver.orig = icmp ult i32 %31, 256
  %isnotneg.i26.lver.orig = icmp sgt i32 %31, -1
  %32 = sext i1 %isnotneg.i26.lver.orig to i8
  %33 = trunc nuw i32 %31 to i8
  %.0.i27.lver.orig = select i1 %.not.i25.lver.orig, i8 %33, i8 %32
  store i8 %.0.i27.lver.orig, ptr %28, align 1, !tbaa !40
  %34 = getelementptr inbounds i8, ptr %.01828.lver.orig, i64 %1
  %35 = add nuw nsw i32 %.029.lver.orig, 1
  %exitcond.not.lver.orig = icmp eq i32 %35, 8
  br i1 %exitcond.not.lver.orig, label %.loopexit, label %.ph.lver.orig, !llvm.loop !47

.ph:                                              ; preds = %.lver.check
  %scevgep = getelementptr nuw i8, ptr %0, i64 2
  %load_initial = load i8, ptr %scevgep, align 1
  br label %36

36:                                               ; preds = %.ph, %36
  %store_forwarded = phi i8 [ %load_initial, %.ph ], [ %.0.i27, %36 ]
  %.029 = phi i32 [ 0, %.ph ], [ %60, %36 ]
  %.01828 = phi ptr [ %0, %.ph ], [ %59, %36 ]
  %37 = load i8, ptr %.01828, align 1, !tbaa !40
  %38 = zext i8 %37 to i32
  %39 = add nsw i32 %10, %38
  %.not.i = icmp ult i32 %39, 256
  %isnotneg.i = icmp sgt i32 %39, -1
  %40 = sext i1 %isnotneg.i to i8
  %41 = trunc nuw i32 %39 to i8
  %.0.i = select i1 %.not.i, i8 %41, i8 %40
  store i8 %.0.i, ptr %.01828, align 1, !tbaa !40
  %42 = getelementptr inbounds nuw i8, ptr %.01828, i64 1
  %43 = load i8, ptr %42, align 1, !tbaa !40
  %44 = zext i8 %43 to i32
  %45 = add nsw i32 %10, %44
  %.not.i19 = icmp ult i32 %45, 256
  %isnotneg.i20 = icmp sgt i32 %45, -1
  %46 = sext i1 %isnotneg.i20 to i8
  %47 = trunc nuw i32 %45 to i8
  %.0.i21 = select i1 %.not.i19, i8 %47, i8 %46
  store i8 %.0.i21, ptr %42, align 1, !tbaa !40
  %48 = getelementptr inbounds nuw i8, ptr %.01828, i64 2
  %49 = zext i8 %store_forwarded to i32
  %50 = add nsw i32 %10, %49
  %.not.i22 = icmp ult i32 %50, 256
  %isnotneg.i23 = icmp sgt i32 %50, -1
  %51 = sext i1 %isnotneg.i23 to i8
  %52 = trunc nuw i32 %50 to i8
  %.0.i24 = select i1 %.not.i22, i8 %52, i8 %51
  store i8 %.0.i24, ptr %48, align 1, !tbaa !40
  %53 = getelementptr inbounds nuw i8, ptr %.01828, i64 3
  %54 = load i8, ptr %53, align 1, !tbaa !40
  %55 = zext i8 %54 to i32
  %56 = add nsw i32 %10, %55
  %.not.i25 = icmp ult i32 %56, 256
  %isnotneg.i26 = icmp sgt i32 %56, -1
  %57 = sext i1 %isnotneg.i26 to i8
  %58 = trunc nuw i32 %56 to i8
  %.0.i27 = select i1 %.not.i25, i8 %58, i8 %57
  store i8 %.0.i27, ptr %53, align 1, !tbaa !40
  %59 = getelementptr inbounds nuw i8, ptr %.01828, i64 %1
  %60 = add nuw nsw i32 %.029, 1
  %exitcond.not = icmp eq i32 %60, 8
  br i1 %exitcond.not, label %.loopexit, label %36, !llvm.loop !47

.loopexit:                                        ; preds = %.ph.lver.orig, %36
  ret void
}